target datalayout = "e-m:e-p270:32:32-p271:32:32-p272:64:64-i64:64-i128:128-f80:128-n8:16:32:64-S128"
target triple = "x86_64-pc-linux-gnu"

%struct.collect_data_st = type { ptr, ptr, ptr, i32, i32, i32, i8, i8, ptr }
%struct.CRYPTO_REF_COUNT = type { i32 }
%struct.evp_keymgmt_st = type { i32, i32, i32, ptr, ptr, ptr, %struct.CRYPTO_REF_COUNT, ptr, ptr, ptr, ptr, ptr, ptr, ptr, ptr, ptr, ptr, ptr, ptr, ptr, ptr, ptr, ptr, ptr, ptr, ptr, ptr, ptr, ptr, ptr, ptr, ptr, ptr }

@.str.2 = private unnamed_addr constant [15 x i8] c"id-ecPublicKey\00", align 1
@.str.3 = private unnamed_addr constant [18 x i8] c"1.2.840.10045.2.1\00", align 1
@.str.4 = private unnamed_addr constant [4 x i8] c"SM2\00", align 1

; Function Attrs: inlinehint nounwind uwtable
define internal i32 @sk_EVP_KEYMGMT_push(ptr noundef %0, ptr noundef %1) #3 {
  %3 = alloca ptr, align 8
  %4 = alloca ptr, align 8
  store ptr %0, ptr %3, align 8, !tbaa !38
  store ptr %1, ptr %4, align 8, !tbaa !58
  %5 = load ptr, ptr %3, align 8, !tbaa !38
  %6 = load ptr, ptr %4, align 8, !tbaa !58
  %7 = call i32 @OPENSSL_sk_push(ptr noundef %5, ptr noundef %6)
  ret i32 %7
}

; Function Attrs: nounwind uwtable
define internal i32 @check_keymgmt(ptr noundef %0, ptr noundef %1) #0 {
  %3 = alloca i32, align 4
  %4 = alloca ptr, align 8
  %5 = alloca ptr, align 8
  %6 = alloca ptr, align 8
  store ptr %0, ptr %4, align 8, !tbaa !58
  store ptr %1, ptr %5, align 8, !tbaa !60
  %7 = load ptr, ptr %5, align 8, !tbaa !60
  %8 = getelementptr inbounds nuw %struct.collect_data_st, ptr %7, i32 0, i32 2
  %9 = load ptr, ptr %8, align 8, !tbaa !54
  %10 = icmp eq ptr %9, null
  br i1 %10, label %11, label %12

11:                                               ; preds = %2
  store i32 1, ptr %3, align 4
  br label %77

12:                                               ; preds = %2
  %13 = load ptr, ptr %5, align 8, !tbaa !60
  %14 = getelementptr inbounds nuw %struct.collect_data_st, ptr %13, i32 0, i32 7
  %15 = load i8, ptr %14, align 1, !tbaa !91
  %16 = icmp ne i8 %15, 0
  br i1 %16, label %53, label %17

17:                                               ; preds = %12
  call void @llvm.lifetime.start.p0(i64 8, ptr %6) #7
  %18 = load ptr, ptr %5, align 8, !tbaa !60
  %19 = getelementptr inbounds nuw %struct.collect_data_st, ptr %18, i32 0, i32 0
  %20 = load ptr, ptr %19, align 8, !tbaa !52
  %21 = call ptr @ossl_namemap_stored(ptr noundef %20)
  store ptr %21, ptr %6, align 8, !tbaa !92
  %22 = load ptr, ptr %6, align 8, !tbaa !92
  %23 = load ptr, ptr %5, align 8, !tbaa !60
  %24 = getelementptr inbounds nuw %struct.collect_data_st, ptr %23, i32 0, i32 2
  %25 = load ptr, ptr %24, align 8, !tbaa !54
  %26 = call i32 @ossl_namemap_name2num(ptr noundef %22, ptr noundef %25)
  %27 = load ptr, ptr %5, align 8, !tbaa !60
  %28 = getelementptr inbounds nuw %struct.collect_data_st, ptr %27, i32 0, i32 3
  store i32 %26, ptr %28, align 8, !tbaa !94
  %29 = load ptr, ptr %5, align 8, !tbaa !60
  %30 = getelementptr inbounds nuw %struct.collect_data_st, ptr %29, i32 0, i32 3
  %31 = load i32, ptr %30, align 8, !tbaa !94
  %32 = icmp ne i32 %31, 0
  br i1 %32, label %33, label %50

33:                                               ; preds = %17
  %34 = load ptr, ptr %5, align 8, !tbaa !60
  %35 = getelementptr inbounds nuw %struct.collect_data_st, ptr %34, i32 0, i32 2
  %36 = load ptr, ptr %35, align 8, !tbaa !54
  %37 = call i32 @strcmp(ptr noundef %36, ptr noundef @.str.2) #8
  %38 = icmp eq i32 %37, 0
  br i1 %38, label %45, label %39

39:                                               ; preds = %33
  %40 = load ptr, ptr %5, align 8, !tbaa !60
  %41 = getelementptr inbounds nuw %struct.collect_data_st, ptr %40, i32 0, i32 2
  %42 = load ptr, ptr %41, align 8, !tbaa !54
  %43 = call i32 @strcmp(ptr noundef %42, ptr noundef @.str.3) #8
  %44 = icmp eq i32 %43, 0
  br i1 %44, label %45, label %50

45:                                               ; preds = %39, %33
  %46 = load ptr, ptr %6, align 8, !tbaa !92
  %47 = call i32 @ossl_namemap_name2num(ptr noundef %46, ptr noundef @.str.4)
  %48 = load ptr, ptr %5, align 8, !tbaa !60
  %49 = getelementptr inbounds nuw %struct.collect_data_st, ptr %48, i32 0, i32 4
  store i32 %47, ptr %49, align 4, !tbaa !95
  br label %50

50:                                               ; preds = %45, %39, %17
  %51 = load ptr, ptr %5, align 8, !tbaa !60
  %52 = getelementptr inbounds nuw %struct.collect_data_st, ptr %51, i32 0, i32 7
  store i8 1, ptr %52, align 1, !tbaa !91
  call void @llvm.lifetime.end.p0(i64 8, ptr %6) #7
  br label %53

53:                                               ; preds = %50, %12
  %54 = load ptr, ptr %5, align 8, !tbaa !60
  %55 = getelementptr inbounds nuw %struct.collect_data_st, ptr %54, i32 0, i32 3
  %56 = load i32, ptr %55, align 8, !tbaa !94
  %57 = icmp eq i32 %56, 0
  br i1 %57, label %58, label %59

58:                                               ; preds = %53
  store i32 0, ptr %3, align 4
  br label %77

59:                                               ; preds = %53
  %60 = load ptr, ptr %4, align 8, !tbaa !58
  %61 = getelementptr inbounds nuw %struct.evp_keymgmt_st, ptr %60, i32 0, i32 1
  %62 = load i32, ptr %61, align 4, !tbaa !96
  %63 = load ptr, ptr %5, align 8, !tbaa !60
  %64 = getelementptr inbounds nuw %struct.collect_data_st, ptr %63, i32 0, i32 3
  %65 = load i32, ptr %64, align 8, !tbaa !94
  %66 = icmp ne i32 %62, %65
  br i1 %66, label %67, label %76

67:                                               ; preds = %59
  %68 = load ptr, ptr %4, align 8, !tbaa !58
  %69 = getelementptr inbounds nuw %struct.evp_keymgmt_st, ptr %68, i32 0, i32 1
  %70 = load i32, ptr %69, align 4, !tbaa !96
  %71 = load ptr, ptr %5, align 8, !tbaa !60
  %72 = getelementptr inbounds nuw %struct.collect_data_st, ptr %71, i32 0, i32 4
  %73 = load i32, ptr %72, align 4, !tbaa !95
  %74 = icmp ne i32 %70, %73
  br i1 %74, label %75, label %76

75:                                               ; preds = %67
  store i32 0, ptr %3, align 4
  br label %77

76:                                               ; preds = %67, %59
  store i32 1, ptr %3, align 4
  br label %77

77:                                               ; preds = %76, %75, %58, %11
  %78 = load i32, ptr %3, align 4
  ret i32 %78
}

; Function Attrs: nounwind uwtable
define internal void @collect_keymgmt(ptr noundef %0, ptr noundef %1) #0 {
  %3 = alloca ptr, align 8
  %4 = alloca ptr, align 8
  %5 = alloca ptr, align 8
  %6 = alloca i32, align 4
  store ptr %0, ptr %3, align 8, !tbaa !58
  store ptr %1, ptr %4, align 8, !tbaa !14
  call void @llvm.lifetime.start.p0(i64 8, ptr %5) #7
  %7 = load ptr, ptr %4, align 8, !tbaa !14
  store ptr %7, ptr %5, align 8, !tbaa !60
  %8 = load ptr, ptr %3, align 8, !tbaa !58
  %9 = load ptr, ptr %5, align 8, !tbaa !60
  %10 = call i32 @check_keymgmt(ptr noundef %8, ptr noundef %9)
  %11 = icmp ne i32 %10, 0
  br i1 %11, label %13, label %12

12:                                               ; preds = %2
  store i32 1, ptr %6, align 4
  br label %30

13:                                               ; preds = %2
  %14 = load ptr, ptr %3, align 8, !tbaa !58
  %15 = call i32 @EVP_KEYMGMT_up_ref(ptr noundef %14)
  %16 = icmp ne i32 %15, 0
  br i1 %16, label %18, label %17

17:                                               ; preds = %13
  store i32 1, ptr %6, align 4
  br label %30

18:                                               ; preds = %13
  %19 = load ptr, ptr %5, align 8, !tbaa !60
  %20 = getelementptr inbounds nuw %struct.collect_data_st, ptr %19, i32 0, i32 8
  %21 = load ptr, ptr %20, align 8, !tbaa !53
  %22 = load ptr, ptr %3, align 8, !tbaa !58
  %23 = call i32 @sk_EVP_KEYMGMT_push(ptr noundef %21, ptr noundef %22)
  %24 = icmp sle i32 %23, 0
  br i1 %24, label %25, label %29

25:                                               ; preds = %18
  %26 = load ptr, ptr %3, align 8, !tbaa !58
  call void @EVP_KEYMGMT_free(ptr noundef %26)
  %27 = load ptr, ptr %5, align 8, !tbaa !60
  %28 = getelementptr inbounds nuw %struct.collect_data_st, ptr %27, i32 0, i32 6
  store i8 1, ptr %28, align 4, !tbaa !55
  br label %29

29:                                               ; preds = %25, %18
  store i32 0, ptr %6, align 4
  br label %30

30:                                               ; preds = %29, %17, %12
  call void @llvm.lifetime.end.p0(i64 8, ptr %5) #7
  %31 = load i32, ptr %6, align 4
  switch i32 %31, label %33 [
    i32 0, label %32
    i32 1, label %32
  ]

32:                                               ; preds = %30, %30
  ret void

33:                                               ; preds = %30
  unreachable
}