; Function Attrs: nounwind uwtable
define internal void @collect_keymgmt(ptr noundef %0, ptr noundef captures(none) %1) #0 {
  %3 = getelementptr inbounds nuw i8, ptr %1, i64 16
  %4 = load ptr, ptr %3, align 8, !tbaa !42
  %5 = icmp eq ptr %4, null
  br i1 %5, label %check_keymgmt.exit, label %6

6:                                                ; preds = %2
  %7 = getelementptr inbounds nuw i8, ptr %1, i64 37
  %8 = load i8, ptr %7, align 1, !tbaa !47
  %.not.i = icmp eq i8 %8, 0
  br i1 %.not.i, label %9, label %26

9:                                                ; preds = %6
  %10 = load ptr, ptr %1, align 8, !tbaa !40
  %11 = tail call ptr @ossl_namemap_stored(ptr noundef %10) #7
  %12 = load ptr, ptr %3, align 8, !tbaa !42
  %13 = tail call i32 @ossl_namemap_name2num(ptr noundef %11, ptr noundef %12) #7
  %14 = getelementptr inbounds nuw i8, ptr %1, i64 24
  store i32 %13, ptr %14, align 8, !tbaa !48
  %.not19.i = icmp eq i32 %13, 0
  br i1 %.not19.i, label %25, label %15

15:                                               ; preds = %9
  %16 = load ptr, ptr %3, align 8, !tbaa !42
  %17 = tail call i32 @strcmp(ptr noundef nonnull dereferenceable(1) %16, ptr noundef nonnull dereferenceable(15) @.str.2) #8
  %18 = icmp eq i32 %17, 0
  br i1 %18, label %22, label %19

19:                                               ; preds = %15
  %20 = tail call i32 @strcmp(ptr noundef nonnull dereferenceable(1) %16, ptr noundef nonnull dereferenceable(18) @.str.3) #8
  %21 = icmp eq i32 %20, 0
  br i1 %21, label %22, label %25

22:                                               ; preds = %19, %15
  %23 = tail call i32 @ossl_namemap_name2num(ptr noundef %11, ptr noundef nonnull @.str.4) #7
  %24 = getelementptr inbounds nuw i8, ptr %1, i64 28
  store i32 %23, ptr %24, align 4, !tbaa !49
  br label %25

25:                                               ; preds = %22, %19, %9
  store i8 1, ptr %7, align 1, !tbaa !47
  br label %26

26:                                               ; preds = %25, %6
  %27 = getelementptr inbounds nuw i8, ptr %1, i64 24
  %28 = load i32, ptr %27, align 8, !tbaa !48
  %29 = icmp eq i32 %28, 0
  br i1 %29, label %check_keymgmt.exit.thread, label %30

30:                                               ; preds = %26
  %31 = getelementptr inbounds nuw i8, ptr %0, i64 4
  %32 = load i32, ptr %31, align 4, !tbaa !50
  %.not20.i = icmp eq i32 %32, %28
  br i1 %.not20.i, label %check_keymgmt.exit, label %33

33:                                               ; preds = %30
  %34 = getelementptr inbounds nuw i8, ptr %1, i64 28
  %35 = load i32, ptr %34, align 4, !tbaa !49
  %.not21.i = icmp eq i32 %32, %35
  br i1 %.not21.i, label %check_keymgmt.exit, label %check_keymgmt.exit.thread

check_keymgmt.exit:                               ; preds = %30, %33, %2
  %36 = tail call i32 @EVP_KEYMGMT_up_ref(ptr noundef %0) #7
  %.not8 = icmp eq i32 %36, 0
  br i1 %.not8, label %check_keymgmt.exit.thread, label %37

37:                                               ; preds = %check_keymgmt.exit
  %38 = getelementptr inbounds nuw i8, ptr %1, i64 40
  %39 = load ptr, ptr %38, align 8, !tbaa !41
  %40 = tail call i32 @OPENSSL_sk_push(ptr noundef %39, ptr noundef %0) #7
  %41 = icmp slt i32 %40, 1
  br i1 %41, label %42, label %check_keymgmt.exit.thread

42:                                               ; preds = %37
  tail call void @EVP_KEYMGMT_free(ptr noundef %0) #7
  %43 = getelementptr inbounds nuw i8, ptr %1, i64 36
  store i8 1, ptr %43, align 4, !tbaa !43
  br label %check_keymgmt.exit.thread

check_keymgmt.exit.thread:                        ; preds = %33, %26, %37, %42, %check_keymgmt.exit
  ret void
}